; Function Attrs: mustprogress uwtable
define hidden void @_ZN4cvc58internal6theory7strings11ArithEntail24rewritePredViaEntailmentERKNS0_12NodeTemplateILb1EEEb(ptr dead_on_unwind noalias writable sret(%"class.cvc5::internal::NodeTemplate") align 8 %0, ptr noundef nonnull align 8 dereferenceable(128) %1, ptr noundef nonnull readonly align 8 captures(none) dereferenceable(8) %2, i1 noundef zeroext %3) local_unnamed_addr #3 align 2 personality ptr @__gxx_personality_v0 {
  %5 = alloca %"class.cvc5::internal::NodeTemplate", align 8
  call void @llvm.lifetime.start.p0(i64 8, ptr nonnull %5) #22
  %6 = load atomic i8, ptr @_ZGVZN4cvc58internal4expr9NodeValue4nullEvE6s_null acquire, align 8
  %7 = icmp eq i8 %6, 0
  br i1 %7, label %8, label %_ZN4cvc58internal12NodeTemplateILb1EEC2Ev.exit, !prof !23

8:                                                ; preds = %4
  %9 = tail call i32 @__cxa_guard_acquire(ptr nonnull @_ZGVZN4cvc58internal4expr9NodeValue4nullEvE6s_null) #22
  %.not.i.i = icmp eq i32 %9, 0
  br i1 %.not.i.i, label %_ZN4cvc58internal12NodeTemplateILb1EEC2Ev.exit, label %10

10:                                               ; preds = %8
  %11 = invoke noalias noundef nonnull dereferenceable(24) ptr @_Znwm(i64 noundef 24) #23
          to label %12 unwind label %14

12:                                               ; preds = %10
  store i64 1152920405095219200, ptr %11, align 8
  %13 = getelementptr inbounds nuw i8, ptr %11, i64 8
  tail call void @llvm.memset.p0.i64(ptr noundef nonnull align 8 dereferenceable(16) %13, i8 0, i64 16, i1 false)
  store ptr %11, ptr @_ZZN4cvc58internal4expr9NodeValue4nullEvE6s_null, align 8, !tbaa !24
  tail call void @__cxa_guard_release(ptr nonnull @_ZGVZN4cvc58internal4expr9NodeValue4nullEvE6s_null) #22
  br label %_ZN4cvc58internal12NodeTemplateILb1EEC2Ev.exit

common.resume:                                    ; preds = %31, %14
  %common.resume.op = phi { ptr, i32 } [ %15, %14 ], [ %32, %31 ]
  resume { ptr, i32 } %common.resume.op

14:                                               ; preds = %10
  %15 = landingpad { ptr, i32 }
          cleanup
  tail call void @__cxa_guard_abort(ptr nonnull @_ZGVZN4cvc58internal4expr9NodeValue4nullEvE6s_null) #22
  br label %common.resume

_ZN4cvc58internal12NodeTemplateILb1EEC2Ev.exit:   ; preds = %4, %8, %12
  %16 = load ptr, ptr @_ZZN4cvc58internal4expr9NodeValue4nullEvE6s_null, align 8, !tbaa !24
  store ptr %16, ptr %5, align 8, !tbaa !25
  invoke void @_ZN4cvc58internal6theory7strings11ArithEntail24rewritePredViaEntailmentERKNS0_12NodeTemplateILb1EEERS5_b(ptr dead_on_unwind writable sret(%"class.cvc5::internal::NodeTemplate") align 8 %0, ptr noundef nonnull align 8 dereferenceable(128) %1, ptr noundef nonnull align 8 dereferenceable(8) %2, ptr noundef nonnull align 8 dereferenceable(8) %5, i1 noundef zeroext %3)
          to label %17 unwind label %31

17:                                               ; preds = %_ZN4cvc58internal12NodeTemplateILb1EEC2Ev.exit
  %18 = load ptr, ptr %5, align 8, !tbaa !25
  %19 = load i64, ptr %18, align 8
  %20 = and i64 %19, 1152920405095219200
  %.not.i.i4 = icmp eq i64 %20, 1152920405095219200
  br i1 %.not.i.i4, label %_ZN4cvc58internal12NodeTemplateILb1EED2Ev.exit, label %21, !prof !31

21:                                               ; preds = %17
  %22 = add i64 %19, 1152920405095219200
  %23 = and i64 %22, 1152920405095219200
  %24 = and i64 %19, -1152920405095219201
  %25 = or disjoint i64 %23, %24
  store i64 %25, ptr %18, align 8
  %26 = icmp eq i64 %23, 0
  br i1 %26, label %27, label %_ZN4cvc58internal12NodeTemplateILb1EED2Ev.exit, !prof !31

27:                                               ; preds = %21
  invoke void @_ZN4cvc58internal4expr9NodeValue15markForDeletionEv(ptr noundef nonnull align 8 dereferenceable(24) %18)
          to label %_ZN4cvc58internal12NodeTemplateILb1EED2Ev.exit unwind label %28

28:                                               ; preds = %27
  %29 = landingpad { ptr, i32 }
          catch ptr null
  %30 = extractvalue { ptr, i32 } %29, 0
  tail call void @__clang_call_terminate(ptr %30) #24
  unreachable

_ZN4cvc58internal12NodeTemplateILb1EED2Ev.exit:   ; preds = %17, %21, %27
  call void @llvm.lifetime.end.p0(i64 8, ptr nonnull %5) #22
  ret void

31:                                               ; preds = %_ZN4cvc58internal12NodeTemplateILb1EEC2Ev.exit
  %32 = landingpad { ptr, i32 }
          cleanup
  call void @_ZN4cvc58internal12NodeTemplateILb1EED2Ev(ptr noundef nonnull align 8 dereferenceable(8) %5) #22
  call void @llvm.lifetime.end.p0(i64 8, ptr nonnull %5) #22
  br label %common.resume
}